; Function Attrs: mustprogress nounwind uwtable
define dso_local void @_ZN5clang4ento15BlockDataRegion13ProfileRegionERN4llvm16FoldingSetNodeIDEPKNS0_15BlockCodeRegionEPKNS_15LocationContextEjPKNS0_9MemRegionE(ptr noundef nonnull align 8 dereferenceable(144) %0, ptr noundef %1, ptr noundef %2, i32 noundef %3, ptr noundef %4) local_unnamed_addr #3 align 2 {
  %6 = tail call noundef i64 @_ZNK4llvm15SmallVectorBaseIjE4sizeEv(ptr noundef nonnull align 8 dereferenceable(16) %0) #20
  %7 = add i64 %6, 1
  %8 = tail call noundef i64 @_ZNK4llvm15SmallVectorBaseIjE8capacityEv(ptr noundef nonnull align 8 dereferenceable(16) %0) #20
  %.not.i.i.i.i = icmp ugt i64 %7, %8
  br i1 %.not.i.i.i.i, label %9, label %_ZN4llvm16FoldingSetNodeID10AddIntegerEi.exit

9:                                                ; preds = %5
  %10 = getelementptr inbounds i8, ptr %0, i64 16
  tail call void @_ZN4llvm15SmallVectorBaseIjE8grow_podEPvmm(ptr noundef nonnull align 8 dereferenceable(16) %0, ptr noundef nonnull %10, i64 noundef %7, i64 noundef 4) #20
  br label %_ZN4llvm16FoldingSetNodeID10AddIntegerEi.exit

_ZN4llvm16FoldingSetNodeID10AddIntegerEi.exit:    ; preds = %5, %9
  %11 = load ptr, ptr %0, align 8
  %12 = tail call noundef i64 @_ZNK4llvm15SmallVectorBaseIjE4sizeEv(ptr noundef nonnull align 8 dereferenceable(16) %0) #20
  %13 = getelementptr inbounds i32, ptr %11, i64 %12
  store i32 11, ptr %13, align 1
  %14 = tail call noundef i64 @_ZNK4llvm15SmallVectorBaseIjE4sizeEv(ptr noundef nonnull align 8 dereferenceable(16) %0) #20
  %15 = add i64 %14, 1
  tail call void @_ZN4llvm15SmallVectorBaseIjE8set_sizeEm(ptr noundef nonnull align 8 dereferenceable(16) %0, i64 noundef %15) #20
  %16 = ptrtoint ptr %1 to i64
  tail call void @_ZN4llvm16FoldingSetNodeID10AddIntegerEy(ptr noundef nonnull align 8 dereferenceable(144) %0, i64 noundef %16)
  %17 = ptrtoint ptr %2 to i64
  tail call void @_ZN4llvm16FoldingSetNodeID10AddIntegerEy(ptr noundef nonnull align 8 dereferenceable(144) %0, i64 noundef %17)
  %18 = tail call noundef i64 @_ZNK4llvm15SmallVectorBaseIjE4sizeEv(ptr noundef nonnull align 8 dereferenceable(16) %0) #20
  %19 = add i64 %18, 1
  %20 = tail call noundef i64 @_ZNK4llvm15SmallVectorBaseIjE8capacityEv(ptr noundef nonnull align 8 dereferenceable(16) %0) #20
  %.not.i.i.i.i8 = icmp ugt i64 %19, %20
  br i1 %.not.i.i.i.i8, label %21, label %_ZN4llvm16FoldingSetNodeID10AddIntegerEj.exit

21:                                               ; preds = %_ZN4llvm16FoldingSetNodeID10AddIntegerEi.exit
  %22 = getelementptr inbounds i8, ptr %0, i64 16
  tail call void @_ZN4llvm15SmallVectorBaseIjE8grow_podEPvmm(ptr noundef nonnull align 8 dereferenceable(16) %0, ptr noundef nonnull %22, i64 noundef %19, i64 noundef 4) #20
  br label %_ZN4llvm16FoldingSetNodeID10AddIntegerEj.exit

_ZN4llvm16FoldingSetNodeID10AddIntegerEj.exit:    ; preds = %_ZN4llvm16FoldingSetNodeID10AddIntegerEi.exit, %21
  %23 = load ptr, ptr %0, align 8
  %24 = tail call noundef i64 @_ZNK4llvm15SmallVectorBaseIjE4sizeEv(ptr noundef nonnull align 8 dereferenceable(16) %0) #20
  %25 = getelementptr inbounds i32, ptr %23, i64 %24
  store i32 %3, ptr %25, align 1
  %26 = tail call noundef i64 @_ZNK4llvm15SmallVectorBaseIjE4sizeEv(ptr noundef nonnull align 8 dereferenceable(16) %0) #20
  %27 = add i64 %26, 1
  tail call void @_ZN4llvm15SmallVectorBaseIjE8set_sizeEm(ptr noundef nonnull align 8 dereferenceable(16) %0, i64 noundef %27) #20
  %28 = ptrtoint ptr %4 to i64
  tail call void @_ZN4llvm16FoldingSetNodeID10AddIntegerEy(ptr noundef nonnull align 8 dereferenceable(144) %0, i64 noundef %28)
  ret void
}